Certificate:
    Data:
        Version: 3 (0x2)
        Serial Number: 0 (0x0)
        Signature Algorithm: sha1WithRSAEncryption
        Issuer: C=ID, OU=Hdalbs ,Org., CN=Hda TimeStamping Service CA
        Validity
            Not Before: Jul 10 06:39:10 2017 GMT
            Not After : May 19 06:39:10 2027 GMT
        Subject: C=ID, OU=Hdalbs ,Org., CN=Hda TimeStamping Service Signer
        Subject Public Key Info:
            Public Key Algorithm: rsaEncryption
                Public-Key: (1024 bit)
                Modulus:
                    00:cf:b5:87:07:ff:a5:78:70:2f:da:30:6d:01:77:
                    86:b5:f7:ca:20:79:1e:5a:fe:b1:9e:5f:e7:0d:8d:
                    12:4f:4c:3a:e6:d2:d7:4d:42:25:00:9f:cd:8a:87:
                    0d:86:81:fe:2d:52:f0:8a:90:50:34:0e:04:0e:52:
                    c9:09:62:51:54:f0:1a:67:75:1a:8d:6b:21:e2:f5:
                    42:79:5b:73:97:62:c9:1e:2f:3a:f7:c0:f4:25:71:
                    42:77:43:3a:1e:6b:cf:de:ee:6f:3b:de:ae:5c:0f:
                    08:db:15:fd:59:e8:1c:75:95:f8:eb:a5:11:d8:7b:
                    48:2e:5b:79:95:2e:76:68:51
                Exponent: 65537 (0x10001)
        X509v3 extensions:
            X509v3 Extended Key Usage: critical
                timestamping
            X509v3 Basic Constraints: 
                CA:FALSE
            Netscape Comment: 
                OpenSSL Generated Certificate
            X509v3 Subject Key Identifier: 
                23:F2:B2:3C:89:61:EB:C9:E8:AD:67:30:C6:13:2E:88:90:6C:18:EA
            X509v3 Authority Key Identifier: 
                keyid:CC:4F:F3:24:1B:60:50:B9:B0:26:DF:FF:F2:6D:1E:31:74:90:8D:F1

    Signature Algorithm: sha1WithRSAEncryption
        89:c2:95:48:c1:cb:bb:6f:9f:d0:a6:05:a2:93:b4:af:45:bb:
        ab:fd:50:bc:cd:cf:06:c2:62:cb:a0:55:1d:66:88:ea:b3:14:
        59:73:84:23:45:d6:24:15:8f:74:f3:88:97:3a:59:38:b7:12:
        23:bc:6f:ec:06:b0:d7:d5:44:2a:87:48:e5:cc:44:0b:1c:4e:
        4e:ee:d2:73:18:81:ec:47:4d:4a:68:5b:81:d5:0e:ff:35:49:
        39:8d:75:d8:20:37:40:81:4a:ff:65:14:d0:8c:5e:65:55:8e:
        c1:bb:4e:cf:35:71:f9:92:44:31:c8:9c:b7:9b:be:2c:09:02:
        cb:74:23:18:3e:48:f3:09:a1:fe:79:3e:f2:48:c8:b7:51:87:
        3c:5e:64:fc:52:a7:db:3b:0b:88:cb:4a:92:bd:ec:5e:bf:0e:
        c0:99:2e:a0:1b:b8:1f:17:94:1f:48:27:e7:bc:3a:6c:0a:71:
        ee:fe:7b:70:57:6d:b3:32:b7:50:27:52:f0:58:a9:33:85:4a:
        87:b7:d4:b5:4e:45:60:8c:5a:af:6b:17:cd:35:ae:0a:98:72:
        f9:04:d8:bc:59:86:fb:52:ee:0c:51:12:2c:ba:89:4d:56:0b:
        f4:3d:0c:45:f6:1c:96:ca:fc:3d:0e:3a:a7:c5:77:50:d5:58:
        e1:8d:ba:c5
-----BEGIN CERTIFICATE-----
MIIDJDCCAgygAwIBAgIBADANBgkqhkiG9w0BAQUFADBKMQswCQYDVQQGEwJJRDEV
MBMGA1UECxMMSGRhbGJzICxPcmcuMSQwIgYDVQQDExtIZGEgVGltZVN0YW1waW5n
IFNlcnZpY2UgQ0EwHhcNMTcwNzEwMDYzOTEwWhcNMjcwNTE5MDYzOTEwWjBOMQsw
CQYDVQQGEwJJRDEVMBMGA1UECxMMSGRhbGJzICxPcmcuMSgwJgYDVQQDEx9IZGEg
VGltZVN0YW1waW5nIFNlcnZpY2UgU2lnbmVyMIGfMA0GCSqGSIb3DQEBAQUAA4GN
ADCBiQKBgQDPtYcH/6V4cC/aMG0Bd4a198ogeR5a/rGeX+cNjRJPTDrm0tdNQiUA
n82Khw2Ggf4tUvCKkFA0DgQOUskJYlFU8BpndRqNayHi9UJ5W3OXYskeLzr3wPQl
cUJ3Qzoea8/e7m873q5cDwjbFf1Z6Bx1lfjrpRHYe0guW3mVLnZoUQIDAQABo4GU
MIGRMBYGA1UdJQEB/wQMMAoGCCsGAQUFBwMIMAkGA1UdEwQCMAAwLAYJYIZIAYb4
QgENBB8WHU9wZW5TU0wgR2VuZXJhdGVkIENlcnRpZmljYXRlMB0GA1UdDgQWBBQj
8rI8iWHryeitZzDGEy6IkGwY6jAfBgNVHSMEGDAWgBTMT/MkG2BQubAm3//ybR4x
dJCN8TANBgkqhkiG9w0BAQUFAAOCAQEAicKVSMHLu2+f0KYFopO0r0W7q/1QvM3P
BsJiy6BVHWaI6rMUWXOEI0XWJBWPdPOIlzpZOLcSI7xv7Aaw19VEKodI5cxECxxO
Tu7ScxiB7EdNSmhbgdUO/zVJOY112CA3QIFK/2UU0IxeZVWOwbtOzzVx+ZJEMcic
t5u+LAkCy3QjGD5I8wmh/nk+8kjIt1GHPF5k/FKn2zsLiMtKkr3sXr8OwJkuoBu4
HxeUH0gn57w6bApx7v57cFdtszK3UCdS8FipM4VKh7fUtU5FYIxar2sXzTWuCphy
+QTYvFmG+1LuDFESLLqJTVYL9D0MRfYclsr8PQ46p8V3UNVY4Y26xQ==
-----END CERTIFICATE-----
-----BEGIN RSA PRIVATE KEY-----
MIICXQIBAAKBgQDPtYcH/6V4cC/aMG0Bd4a198ogeR5a/rGeX+cNjRJPTDrm0tdN
QiUAn82Khw2Ggf4tUvCKkFA0DgQOUskJYlFU8BpndRqNayHi9UJ5W3OXYskeLzr3
wPQlcUJ3Qzoea8/e7m873q5cDwjbFf1Z6Bx1lfjrpRHYe0guW3mVLnZoUQIDAQAB
AoGAEScIc5yk6YE6MmZ1Wf2o3jYMNwpJe3I08MMyrWfM70d4Rb97kCG6NIb9zkbA
0y7A8rU6r/ai6OmPZC9p8qBv3tGFhkcYA40m9pwtx9FGUbQxcp6PzT9bJbU+mg2V
4g9OcAeyQvGvftbCkgcH139Kou0SSTFZ3u/CvviYqy1ISQECQQD89J1oZKffAPli
4HlB5dw92e42tqQSnjgN/kU7lVooAu/1O5At0lWme76Ket/74W3dDMgsWgp6uMgt
1DZ5mGKJAkEA0jWAy+SBlvvWsQQnHyD77JcSdCUp59YpKMk+IWEL6zojeP+z1FC+
BhiFevXGNw52C4yrh7W1tMwBjNXRdtUFiQJBAIH3DIj+bmHdlkR/IM4C083Tktj5
rgMC17oY0mlyqwezuqY9HC7uyqLnIVb1Gu/HOzM/xflDqe6z0eX6CqMe8EECQQCS
5/NYCx0J0Hys/1L77UhCgx3Rb7uGm2Pubh3uo+z5eosZ39Hken0is3ZthV/+UCvt
TGUAFdykOsKGk1Os8ZjJAkAkN/W1fdekJ8vFqPTakFfMIFWRFinDZ8m5B/ZQfBBg
UxRevAy20lN+elDqNd8JsCzLIATTEmeitnFq5P66NiEo
-----END RSA PRIVATE KEY-----
